target datalayout = "e-m:e-p270:32:32-p271:32:32-p272:64:64-i64:64-i128:128-f80:128-n8:16:32:64-S128"
target triple = "x86_64-pc-linux-gnu"

%struct._user_encap_t = type { i32, ptr, ptr, ptr, ptr, ptr, ptr, i32, i32 }

@.str.50 = private unnamed_addr constant [5 x i8] c"data\00", align 1

; Function Attrs: null_pointer_is_valid sspstrong uwtable
define internal void @user_encap_trailer_proto_set_cb(ptr noundef %0, ptr noundef %1, i32 noundef %2, ptr noundef %3, ptr noundef %4) #0 {
  %6 = alloca ptr, align 8
  %7 = alloca ptr, align 8
  %8 = alloca i32, align 4
  %9 = alloca ptr, align 8
  %10 = alloca ptr, align 8
  store ptr %0, ptr %6, align 8
  store ptr %1, ptr %7, align 8
  store i32 %2, ptr %8, align 4
  store ptr %3, ptr %9, align 8
  store ptr %4, ptr %10, align 8
  %11 = load i32, ptr %8, align 4
  %12 = icmp ne i32 %11, 0
  br i1 %12, label %13, label %31

13:                                               ; preds = %5
  %14 = load ptr, ptr %7, align 8
  %15 = load i32, ptr %8, align 4
  %16 = zext i32 %15 to i64
  %17 = call noalias ptr @g_strndup(ptr noundef %14, i64 noundef %16)
  %18 = load ptr, ptr %6, align 8
  %19 = getelementptr inbounds nuw %struct._user_encap_t, ptr %18, i32 0, i32 5
  store ptr %17, ptr %19, align 8
  %20 = load ptr, ptr %6, align 8
  %21 = getelementptr inbounds nuw %struct._user_encap_t, ptr %20, i32 0, i32 5
  %22 = load ptr, ptr %21, align 8
  %23 = call ptr @g_strchug(ptr noundef %22)
  %24 = call ptr @g_strchomp(ptr noundef %23)
  %25 = load ptr, ptr %6, align 8
  %26 = getelementptr inbounds nuw %struct._user_encap_t, ptr %25, i32 0, i32 5
  %27 = load ptr, ptr %26, align 8
  %28 = call ptr @find_dissector(ptr noundef %27)
  %29 = load ptr, ptr %6, align 8
  %30 = getelementptr inbounds nuw %struct._user_encap_t, ptr %29, i32 0, i32 6
  store ptr %28, ptr %30, align 8
  br label %37

31:                                               ; preds = %5
  %32 = call ptr @find_dissector(ptr noundef @.str.50)
  %33 = load ptr, ptr %6, align 8
  %34 = getelementptr inbounds nuw %struct._user_encap_t, ptr %33, i32 0, i32 6
  store ptr %32, ptr %34, align 8
  %35 = load ptr, ptr %6, align 8
  %36 = getelementptr inbounds nuw %struct._user_encap_t, ptr %35, i32 0, i32 5
  store ptr null, ptr %36, align 8
  br label %37

37:                                               ; preds = %31, %13
  ret void
}